#include <math.h>
#include <stdio.h>
#include <stdlib.h>
#include <string.h>

void guochen(int array[],int n)
{
	int a,i,j;
	for(a=0;a<n;a++)
		scanf("%d",&array[a]);
	for(i=0;i<n-1;i++)
	{
		for(j=i+1;j<n;j++)
		{
			if(array[j]<array[i])
			{
				int k;
				k=array[i];
				array[i]=array[j];
				array[j]=k;
			}
		}
	}
}
void shuchu(int one[],int n,int two[],int m)
{
	int i,j;
	printf("%d",one[0]);
	for(i=1;i<n;i++)
		printf(" %d",one[i]);
	for(j=0;j<m;j++)
		printf(" %d",two[j]);
}
void main()
{
	int n,m,one[100],two[100];
	scanf("%d %d",&n,&m);
	guochen(one,n);
	guochen(two,m);
	shuchu(one,n,two,m);
}