; ModuleID = '8/472.c'
source_filename = "8/472.c"
target datalayout = "e-m:e-p270:32:32-p271:32:32-p272:64:64-i64:64-f80:128-n8:16:32:64-S128"
target triple = "x86_64-pc-linux-gnu"

@.str = private unnamed_addr constant [3 x i8] c"%d\00", align 1
@.str.1 = private unnamed_addr constant [4 x i8] c" %d\00", align 1
@.str.2 = private unnamed_addr constant [6 x i8] c"%d %d\00", align 1

; Function Attrs: noinline nounwind uwtable
define dso_local void @guochen(i32* %0, i32 %1) #0 {
  %3 = alloca i32*, align 8
  %4 = alloca i32, align 4
  %5 = alloca i32, align 4
  %6 = alloca i32, align 4
  %7 = alloca i32, align 4
  %8 = alloca i32, align 4
  store i32* %0, i32** %3, align 8
  store i32 %1, i32* %4, align 4
  store i32 0, i32* %5, align 4
  br label %9

9:                                                ; preds = %19, %2
  %10 = load i32, i32* %5, align 4
  %11 = load i32, i32* %4, align 4
  %12 = icmp slt i32 %10, %11
  br i1 %12, label %13, label %22

13:                                               ; preds = %9
  %14 = load i32*, i32** %3, align 8
  %15 = load i32, i32* %5, align 4
  %16 = sext i32 %15 to i64
  %17 = getelementptr inbounds i32, i32* %14, i64 %16
  %18 = call i32 (i8*, ...) @__isoc99_scanf(i8* getelementptr inbounds ([3 x i8], [3 x i8]* @.str, i64 0, i64 0), i32* %17)
  br label %19

19:                                               ; preds = %13
  %20 = load i32, i32* %5, align 4
  %21 = add nsw i32 %20, 1
  store i32 %21, i32* %5, align 4
  br label %9

22:                                               ; preds = %9
  store i32 0, i32* %6, align 4
  br label %23

23:                                               ; preds = %72, %22
  %24 = load i32, i32* %6, align 4
  %25 = load i32, i32* %4, align 4
  %26 = sub nsw i32 %25, 1
  %27 = icmp slt i32 %24, %26
  br i1 %27, label %28, label %75

28:                                               ; preds = %23
  %29 = load i32, i32* %6, align 4
  %30 = add nsw i32 %29, 1
  store i32 %30, i32* %7, align 4
  br label %31

31:                                               ; preds = %68, %28
  %32 = load i32, i32* %7, align 4
  %33 = load i32, i32* %4, align 4
  %34 = icmp slt i32 %32, %33
  br i1 %34, label %35, label %71

35:                                               ; preds = %31
  %36 = load i32*, i32** %3, align 8
  %37 = load i32, i32* %7, align 4
  %38 = sext i32 %37 to i64
  %39 = getelementptr inbounds i32, i32* %36, i64 %38
  %40 = load i32, i32* %39, align 4
  %41 = load i32*, i32** %3, align 8
  %42 = load i32, i32* %6, align 4
  %43 = sext i32 %42 to i64
  %44 = getelementptr inbounds i32, i32* %41, i64 %43
  %45 = load i32, i32* %44, align 4
  %46 = icmp slt i32 %40, %45
  br i1 %46, label %47, label %67

47:                                               ; preds = %35
  %48 = load i32*, i32** %3, align 8
  %49 = load i32, i32* %6, align 4
  %50 = sext i32 %49 to i64
  %51 = getelementptr inbounds i32, i32* %48, i64 %50
  %52 = load i32, i32* %51, align 4
  store i32 %52, i32* %8, align 4
  %53 = load i32*, i32** %3, align 8
  %54 = load i32, i32* %7, align 4
  %55 = sext i32 %54 to i64
  %56 = getelementptr inbounds i32, i32* %53, i64 %55
  %57 = load i32, i32* %56, align 4
  %58 = load i32*, i32** %3, align 8
  %59 = load i32, i32* %6, align 4
  %60 = sext i32 %59 to i64
  %61 = getelementptr inbounds i32, i32* %58, i64 %60
  store i32 %57, i32* %61, align 4
  %62 = load i32, i32* %8, align 4
  %63 = load i32*, i32** %3, align 8
  %64 = load i32, i32* %7, align 4
  %65 = sext i32 %64 to i64
  %66 = getelementptr inbounds i32, i32* %63, i64 %65
  store i32 %62, i32* %66, align 4
  br label %67

67:                                               ; preds = %47, %35
  br label %68

68:                                               ; preds = %67
  %69 = load i32, i32* %7, align 4
  %70 = add nsw i32 %69, 1
  store i32 %70, i32* %7, align 4
  br label %31

71:                                               ; preds = %31
  br label %72

72:                                               ; preds = %71
  %73 = load i32, i32* %6, align 4
  %74 = add nsw i32 %73, 1
  store i32 %74, i32* %6, align 4
  br label %23

75:                                               ; preds = %23
  ret void
}

declare dso_local i32 @__isoc99_scanf(i8*, ...) #1

; Function Attrs: noinline nounwind uwtable
define dso_local void @shuchu(i32* %0, i32 %1, i32* %2, i32 %3) #0 {
  %5 = alloca i32*, align 8
  %6 = alloca i32, align 4
  %7 = alloca i32*, align 8
  %8 = alloca i32, align 4
  %9 = alloca i32, align 4
  %10 = alloca i32, align 4
  store i32* %0, i32** %5, align 8
  store i32 %1, i32* %6, align 4
  store i32* %2, i32** %7, align 8
  store i32 %3, i32* %8, align 4
  %11 = load i32*, i32** %5, align 8
  %12 = getelementptr inbounds i32, i32* %11, i64 0
  %13 = load i32, i32* %12, align 4
  %14 = call i32 (i8*, ...) @printf(i8* getelementptr inbounds ([3 x i8], [3 x i8]* @.str, i64 0, i64 0), i32 %13)
  store i32 1, i32* %9, align 4
  br label %15

15:                                               ; preds = %26, %4
  %16 = load i32, i32* %9, align 4
  %17 = load i32, i32* %6, align 4
  %18 = icmp slt i32 %16, %17
  br i1 %18, label %19, label %29

19:                                               ; preds = %15
  %20 = load i32*, i32** %5, align 8
  %21 = load i32, i32* %9, align 4
  %22 = sext i32 %21 to i64
  %23 = getelementptr inbounds i32, i32* %20, i64 %22
  %24 = load i32, i32* %23, align 4
  %25 = call i32 (i8*, ...) @printf(i8* getelementptr inbounds ([4 x i8], [4 x i8]* @.str.1, i64 0, i64 0), i32 %24)
  br label %26

26:                                               ; preds = %19
  %27 = load i32, i32* %9, align 4
  %28 = add nsw i32 %27, 1
  store i32 %28, i32* %9, align 4
  br label %15

29:                                               ; preds = %15
  store i32 0, i32* %10, align 4
  br label %30

30:                                               ; preds = %41, %29
  %31 = load i32, i32* %10, align 4
  %32 = load i32, i32* %8, align 4
  %33 = icmp slt i32 %31, %32
  br i1 %33, label %34, label %44

34:                                               ; preds = %30
  %35 = load i32*, i32** %7, align 8
  %36 = load i32, i32* %10, align 4
  %37 = sext i32 %36 to i64
  %38 = getelementptr inbounds i32, i32* %35, i64 %37
  %39 = load i32, i32* %38, align 4
  %40 = call i32 (i8*, ...) @printf(i8* getelementptr inbounds ([4 x i8], [4 x i8]* @.str.1, i64 0, i64 0), i32 %39)
  br label %41

41:                                               ; preds = %34
  %42 = load i32, i32* %10, align 4
  %43 = add nsw i32 %42, 1
  store i32 %43, i32* %10, align 4
  br label %30

44:                                               ; preds = %30
  ret void
}

declare dso_local i32 @printf(i8*, ...) #1

; Function Attrs: noinline nounwind uwtable
define dso_local void @main() #0 {
  %1 = alloca i32, align 4
  %2 = alloca i32, align 4
  %3 = alloca [100 x i32], align 16
  %4 = alloca [100 x i32], align 16
  %5 = call i32 (i8*, ...) @__isoc99_scanf(i8* getelementptr inbounds ([6 x i8], [6 x i8]* @.str.2, i64 0, i64 0), i32* %1, i32* %2)
  %6 = getelementptr inbounds [100 x i32], [100 x i32]* %3, i64 0, i64 0
  %7 = load i32, i32* %1, align 4
  call void @guochen(i32* %6, i32 %7)
  %8 = getelementptr inbounds [100 x i32], [100 x i32]* %4, i64 0, i64 0
  %9 = load i32, i32* %2, align 4
  call void @guochen(i32* %8, i32 %9)
  %10 = getelementptr inbounds [100 x i32], [100 x i32]* %3, i64 0, i64 0
  %11 = load i32, i32* %1, align 4
  %12 = getelementptr inbounds [100 x i32], [100 x i32]* %4, i64 0, i64 0
  %13 = load i32, i32* %2, align 4
  call void @shuchu(i32* %10, i32 %11, i32* %12, i32 %13)
  ret void
}


!llvm.module.flags = !{!0}
!llvm.ident = !{!1}

!0 = !{i32 1, !"wchar_size", i32 4}
!1 = !{!"clang version 10.0.0-4ubuntu1 "}
